target datalayout = "e-m:e-p270:32:32-p271:32:32-p272:64:64-i64:64-i128:128-f80:128-n8:16:32:64-S128"
target triple = "x86_64-pc-linux-gnu"

%struct.lua_TValue = type { %union.Value, i32 }
%union.Value = type { ptr }
%struct.lua_State = type { ptr, i8, i8, i8, ptr, ptr, ptr, ptr, ptr, ptr, ptr, ptr, ptr, i32, i32, i16, i16, i8, i8, i32, i32, ptr, %struct.lua_TValue, %struct.lua_TValue, ptr, ptr, ptr, i64 }
%struct.CallInfo = type { ptr, ptr, ptr, ptr, i32, i32 }
%struct.CClosure = type { ptr, i8, i8, i8, i8, ptr, ptr, ptr, [1 x %struct.lua_TValue] }
%struct.CCallS = type { ptr, ptr }

; Function Attrs: nounwind uwtable
define internal ptr @getcurrenv(ptr noundef %0) #0 {
  %2 = alloca ptr, align 8
  %3 = alloca ptr, align 8
  %4 = alloca ptr, align 8
  store ptr %0, ptr %3, align 8, !tbaa !4
  %5 = load ptr, ptr %3, align 8, !tbaa !4
  %6 = getelementptr inbounds nuw %struct.lua_State, ptr %5, i32 0, i32 7
  %7 = load ptr, ptr %6, align 8, !tbaa !28
  %8 = load ptr, ptr %3, align 8, !tbaa !4
  %9 = getelementptr inbounds nuw %struct.lua_State, ptr %8, i32 0, i32 12
  %10 = load ptr, ptr %9, align 8, !tbaa !51
  %11 = icmp eq ptr %7, %10
  br i1 %11, label %12, label %17

12:                                               ; preds = %1
  %13 = load ptr, ptr %3, align 8, !tbaa !4
  %14 = getelementptr inbounds nuw %struct.lua_State, ptr %13, i32 0, i32 22
  %15 = getelementptr inbounds nuw %struct.lua_TValue, ptr %14, i32 0, i32 0
  %16 = load ptr, ptr %15, align 8, !tbaa !23
  store ptr %16, ptr %2, align 8
  br label %28

17:                                               ; preds = %1
  call void @llvm.lifetime.start.p0(i64 8, ptr %4) #6
  %18 = load ptr, ptr %3, align 8, !tbaa !4
  %19 = getelementptr inbounds nuw %struct.lua_State, ptr %18, i32 0, i32 7
  %20 = load ptr, ptr %19, align 8, !tbaa !28
  %21 = getelementptr inbounds nuw %struct.CallInfo, ptr %20, i32 0, i32 1
  %22 = load ptr, ptr %21, align 8, !tbaa !47
  %23 = getelementptr inbounds nuw %struct.lua_TValue, ptr %22, i32 0, i32 0
  %24 = load ptr, ptr %23, align 8, !tbaa !23
  store ptr %24, ptr %4, align 8, !tbaa !48
  %25 = load ptr, ptr %4, align 8, !tbaa !48
  %26 = getelementptr inbounds nuw %struct.CClosure, ptr %25, i32 0, i32 6
  %27 = load ptr, ptr %26, align 8, !tbaa !23
  store ptr %27, ptr %2, align 8
  call void @llvm.lifetime.end.p0(i64 8, ptr %4) #6
  br label %28

28:                                               ; preds = %17, %12
  %29 = load ptr, ptr %2, align 8
  ret ptr %29
}

; Function Attrs: nounwind uwtable
define internal void @f_Ccall(ptr noundef %0, ptr noundef %1) #0 {
  %3 = alloca ptr, align 8
  %4 = alloca ptr, align 8
  %5 = alloca ptr, align 8
  %6 = alloca ptr, align 8
  %7 = alloca ptr, align 8
  %8 = alloca ptr, align 8
  store ptr %0, ptr %3, align 8, !tbaa !4
  store ptr %1, ptr %4, align 8, !tbaa !34
  call void @llvm.lifetime.start.p0(i64 8, ptr %5) #6
  %9 = load ptr, ptr %4, align 8, !tbaa !34
  store ptr %9, ptr %5, align 8, !tbaa !73
  call void @llvm.lifetime.start.p0(i64 8, ptr %6) #6
  %10 = load ptr, ptr %3, align 8, !tbaa !4
  %11 = load ptr, ptr %3, align 8, !tbaa !4
  %12 = call ptr @getcurrenv(ptr noundef %11)
  %13 = call ptr @luaF_newCclosure(ptr noundef %10, i32 noundef 0, ptr noundef %12)
  store ptr %13, ptr %6, align 8, !tbaa !48
  %14 = load ptr, ptr %5, align 8, !tbaa !73
  %15 = getelementptr inbounds nuw %struct.CCallS, ptr %14, i32 0, i32 0
  %16 = load ptr, ptr %15, align 8, !tbaa !70
  %17 = load ptr, ptr %6, align 8, !tbaa !48
  %18 = getelementptr inbounds nuw %struct.CClosure, ptr %17, i32 0, i32 7
  store ptr %16, ptr %18, align 8, !tbaa !23
  call void @llvm.lifetime.start.p0(i64 8, ptr %7) #6
  %19 = load ptr, ptr %3, align 8, !tbaa !4
  %20 = getelementptr inbounds nuw %struct.lua_State, ptr %19, i32 0, i32 4
  %21 = load ptr, ptr %20, align 8, !tbaa !11
  store ptr %21, ptr %7, align 8, !tbaa !9
  %22 = load ptr, ptr %6, align 8, !tbaa !48
  %23 = load ptr, ptr %7, align 8, !tbaa !9
  %24 = getelementptr inbounds nuw %struct.lua_TValue, ptr %23, i32 0, i32 0
  store ptr %22, ptr %24, align 8, !tbaa !23
  %25 = load ptr, ptr %7, align 8, !tbaa !9
  %26 = getelementptr inbounds nuw %struct.lua_TValue, ptr %25, i32 0, i32 1
  store i32 6, ptr %26, align 8, !tbaa !24
  call void @llvm.lifetime.end.p0(i64 8, ptr %7) #6
  %27 = load ptr, ptr %3, align 8, !tbaa !4
  %28 = getelementptr inbounds nuw %struct.lua_State, ptr %27, i32 0, i32 4
  %29 = load ptr, ptr %28, align 8, !tbaa !11
  %30 = getelementptr inbounds nuw %struct.lua_TValue, ptr %29, i32 1
  store ptr %30, ptr %28, align 8, !tbaa !11
  call void @llvm.lifetime.start.p0(i64 8, ptr %8) #6
  %31 = load ptr, ptr %3, align 8, !tbaa !4
  %32 = getelementptr inbounds nuw %struct.lua_State, ptr %31, i32 0, i32 4
  %33 = load ptr, ptr %32, align 8, !tbaa !11
  store ptr %33, ptr %8, align 8, !tbaa !9
  %34 = load ptr, ptr %5, align 8, !tbaa !73
  %35 = getelementptr inbounds nuw %struct.CCallS, ptr %34, i32 0, i32 1
  %36 = load ptr, ptr %35, align 8, !tbaa !72
  %37 = load ptr, ptr %8, align 8, !tbaa !9
  %38 = getelementptr inbounds nuw %struct.lua_TValue, ptr %37, i32 0, i32 0
  store ptr %36, ptr %38, align 8, !tbaa !23
  %39 = load ptr, ptr %8, align 8, !tbaa !9
  %40 = getelementptr inbounds nuw %struct.lua_TValue, ptr %39, i32 0, i32 1
  store i32 2, ptr %40, align 8, !tbaa !24
  call void @llvm.lifetime.end.p0(i64 8, ptr %8) #6
  %41 = load ptr, ptr %3, align 8, !tbaa !4
  %42 = getelementptr inbounds nuw %struct.lua_State, ptr %41, i32 0, i32 4
  %43 = load ptr, ptr %42, align 8, !tbaa !11
  %44 = getelementptr inbounds nuw %struct.lua_TValue, ptr %43, i32 1
  store ptr %44, ptr %42, align 8, !tbaa !11
  %45 = load ptr, ptr %3, align 8, !tbaa !4
  %46 = load ptr, ptr %3, align 8, !tbaa !4
  %47 = getelementptr inbounds nuw %struct.lua_State, ptr %46, i32 0, i32 4
  %48 = load ptr, ptr %47, align 8, !tbaa !11
  %49 = getelementptr inbounds %struct.lua_TValue, ptr %48, i64 -2
  call void @luaD_call(ptr noundef %45, ptr noundef %49, i32 noundef 0)
  call void @llvm.lifetime.end.p0(i64 8, ptr %6) #6
  call void @llvm.lifetime.end.p0(i64 8, ptr %5) #6
  ret void
}