; Function Attrs: nounwind uwtable
define internal void @f_Ccall(ptr noundef %0, ptr noundef readonly captures(none) %1) #2 {
  %3 = getelementptr inbounds nuw i8, ptr %0, i64 40
  %4 = load ptr, ptr %3, align 8, !tbaa !23
  %5 = getelementptr inbounds nuw i8, ptr %0, i64 80
  %6 = load ptr, ptr %5, align 8, !tbaa !44
  %7 = icmp eq ptr %4, %6
  br i1 %7, label %8, label %10

8:                                                ; preds = %2
  %9 = getelementptr inbounds nuw i8, ptr %0, i64 120
  br label %getcurrenv.exit

10:                                               ; preds = %2
  %11 = getelementptr inbounds nuw i8, ptr %4, i64 8
  %12 = load ptr, ptr %11, align 8, !tbaa !41
  %13 = load ptr, ptr %12, align 8, !tbaa !19
  %14 = getelementptr inbounds nuw i8, ptr %13, i64 24
  br label %getcurrenv.exit

getcurrenv.exit:                                  ; preds = %8, %10
  %.0.in.i = phi ptr [ %9, %8 ], [ %14, %10 ]
  %.0.i = load ptr, ptr %.0.in.i, align 8, !tbaa !19
  %15 = tail call ptr @luaF_newCclosure(ptr noundef nonnull %0, i32 noundef 0, ptr noundef %.0.i) #14
  %16 = load ptr, ptr %1, align 8, !tbaa !55
  %17 = getelementptr inbounds nuw i8, ptr %15, i64 32
  store ptr %16, ptr %17, align 8, !tbaa !19
  %18 = getelementptr inbounds nuw i8, ptr %0, i64 16
  %19 = load ptr, ptr %18, align 8, !tbaa !4
  store ptr %15, ptr %19, align 8, !tbaa !19
  %20 = getelementptr inbounds nuw i8, ptr %19, i64 8
  store i32 6, ptr %20, align 8, !tbaa !20
  %21 = load ptr, ptr %18, align 8, !tbaa !4
  %22 = getelementptr inbounds nuw i8, ptr %21, i64 16
  store ptr %22, ptr %18, align 8, !tbaa !4
  %23 = getelementptr inbounds nuw i8, ptr %1, i64 8
  %24 = load ptr, ptr %23, align 8, !tbaa !57
  store ptr %24, ptr %22, align 8, !tbaa !19
  %25 = getelementptr inbounds nuw i8, ptr %21, i64 24
  store i32 2, ptr %25, align 8, !tbaa !20
  %26 = load ptr, ptr %18, align 8, !tbaa !4
  %27 = getelementptr inbounds nuw i8, ptr %26, i64 16
  store ptr %27, ptr %18, align 8, !tbaa !4
  %28 = getelementptr inbounds i8, ptr %26, i64 -16
  tail call void @luaD_call(ptr noundef nonnull %0, ptr noundef nonnull %28, i32 noundef 0) #14
  ret void
}